target datalayout = "e-m:e-p270:32:32-p271:32:32-p272:64:64-i64:64-i128:128-f80:128-n8:16:32:64-S128"
target triple = "x86_64-pc-linux-gnu"

%"class.cv::UMat" = type { i32, i32, i32, i32, ptr, i32, ptr, i64, %"struct.cv::MatSize", %"struct.cv::MatStep" }
%"struct.cv::MatSize" = type { ptr }
%"struct.cv::MatStep" = type { ptr, [2 x i64] }
%"class.cv::Size_" = type { i32, i32 }

; Function Attrs: mustprogress uwtable
define void @_ZN2cv4UMat6createEiiiNS_14UMatUsageFlagsE(ptr noundef nonnull align 8 dereferenceable(80) %0, i32 noundef %1, i32 noundef %2, i32 noundef %3, i32 noundef %4) #3 align 2 {
  %6 = alloca ptr, align 8
  %7 = alloca i32, align 4
  %8 = alloca i32, align 4
  %9 = alloca i32, align 4
  %10 = alloca i32, align 4
  %11 = alloca [2 x i32], align 4
  store ptr %0, ptr %6, align 8, !tbaa !65
  store i32 %1, ptr %7, align 4, !tbaa !37
  store i32 %2, ptr %8, align 4, !tbaa !37
  store i32 %3, ptr %9, align 4, !tbaa !37
  store i32 %4, ptr %10, align 4, !tbaa !67
  %12 = load ptr, ptr %6, align 8
  call void @llvm.lifetime.start.p0(i64 8, ptr %11) #16
  %13 = load i32, ptr %7, align 4, !tbaa !37
  store i32 %13, ptr %11, align 4, !tbaa !37
  %14 = getelementptr inbounds i32, ptr %11, i64 1
  %15 = load i32, ptr %8, align 4, !tbaa !37
  store i32 %15, ptr %14, align 4, !tbaa !37
  %16 = getelementptr inbounds [2 x i32], ptr %11, i64 0, i64 0
  %17 = load i32, ptr %9, align 4, !tbaa !37
  %18 = load i32, ptr %10, align 4, !tbaa !67
  call void @_ZN2cv4UMat6createEiPKiiNS_14UMatUsageFlagsE(ptr noundef nonnull align 8 dereferenceable(80) %12, i32 noundef 2, ptr noundef %16, i32 noundef %17, i32 noundef %18)
  call void @llvm.lifetime.end.p0(i64 8, ptr %11) #16
  ret void
}

; Function Attrs: inlinehint mustprogress nounwind uwtable
define linkonce_odr hidden void @_ZN2cv7MatStepC2Ev(ptr noundef nonnull align 8 dereferenceable(24) %0) unnamed_addr #5 comdat align 2 {
  %2 = alloca ptr, align 8
  store ptr %0, ptr %2, align 8, !tbaa !86
  %3 = load ptr, ptr %2, align 8
  %4 = getelementptr inbounds nuw %"struct.cv::MatStep", ptr %3, i32 0, i32 1
  %5 = getelementptr inbounds [2 x i64], ptr %4, i64 0, i64 0
  %6 = getelementptr inbounds nuw %"struct.cv::MatStep", ptr %3, i32 0, i32 0
  store ptr %5, ptr %6, align 8, !tbaa !88
  %7 = getelementptr inbounds nuw %"struct.cv::MatStep", ptr %3, i32 0, i32 0
  %8 = load ptr, ptr %7, align 8, !tbaa !88
  %9 = getelementptr inbounds i64, ptr %8, i64 1
  store i64 0, ptr %9, align 8, !tbaa !50
  %10 = getelementptr inbounds nuw %"struct.cv::MatStep", ptr %3, i32 0, i32 0
  %11 = load ptr, ptr %10, align 8, !tbaa !88
  %12 = getelementptr inbounds i64, ptr %11, i64 0
  store i64 0, ptr %12, align 8, !tbaa !50
  ret void
}

; Function Attrs: inlinehint mustprogress nounwind uwtable
define linkonce_odr hidden void @_ZN2cv7MatSizeC2EPi(ptr noundef nonnull align 8 dereferenceable(8) %0, ptr noundef %1) unnamed_addr #5 comdat align 2 {
  %3 = alloca ptr, align 8
  %4 = alloca ptr, align 8
  store ptr %0, ptr %3, align 8, !tbaa !82
  store ptr %1, ptr %4, align 8, !tbaa !84
  %5 = load ptr, ptr %3, align 8
  %6 = getelementptr inbounds nuw %"struct.cv::MatSize", ptr %5, i32 0, i32 0
  %7 = load ptr, ptr %4, align 8, !tbaa !84
  store ptr %7, ptr %6, align 8, !tbaa !85
  ret void
}

; Function Attrs: mustprogress uwtable
define void @_ZN2cv4UMatC2ENS_5Size_IiEEiNS_14UMatUsageFlagsE(ptr noundef nonnull align 8 dereferenceable(80) %0, i64 %1, i32 noundef %2, i32 noundef %3) unnamed_addr #3 align 2 {
  %5 = alloca %"class.cv::Size_", align 4
  %6 = alloca ptr, align 8
  %7 = alloca i32, align 4
  %8 = alloca i32, align 4
  store i64 %1, ptr %5, align 4
  store ptr %0, ptr %6, align 8, !tbaa !65
  store i32 %2, ptr %7, align 4, !tbaa !37
  store i32 %3, ptr %8, align 4, !tbaa !67
  %9 = load ptr, ptr %6, align 8
  %10 = getelementptr inbounds nuw %"class.cv::UMat", ptr %9, i32 0, i32 0
  store i32 1124007936, ptr %10, align 8, !tbaa !69
  %11 = getelementptr inbounds nuw %"class.cv::UMat", ptr %9, i32 0, i32 1
  store i32 0, ptr %11, align 4, !tbaa !75
  %12 = getelementptr inbounds nuw %"class.cv::UMat", ptr %9, i32 0, i32 2
  store i32 0, ptr %12, align 8, !tbaa !76
  %13 = getelementptr inbounds nuw %"class.cv::UMat", ptr %9, i32 0, i32 3
  store i32 0, ptr %13, align 4, !tbaa !77
  %14 = getelementptr inbounds nuw %"class.cv::UMat", ptr %9, i32 0, i32 4
  store ptr null, ptr %14, align 8, !tbaa !78
  %15 = getelementptr inbounds nuw %"class.cv::UMat", ptr %9, i32 0, i32 5
  %16 = load i32, ptr %8, align 4, !tbaa !67
  store i32 %16, ptr %15, align 8, !tbaa !79
  %17 = getelementptr inbounds nuw %"class.cv::UMat", ptr %9, i32 0, i32 6
  store ptr null, ptr %17, align 8, !tbaa !80
  %18 = getelementptr inbounds nuw %"class.cv::UMat", ptr %9, i32 0, i32 7
  store i64 0, ptr %18, align 8, !tbaa !81
  %19 = getelementptr inbounds nuw %"class.cv::UMat", ptr %9, i32 0, i32 8
  %20 = getelementptr inbounds nuw %"class.cv::UMat", ptr %9, i32 0, i32 2
  call void @_ZN2cv7MatSizeC2EPi(ptr noundef nonnull align 8 dereferenceable(8) %19, ptr noundef %20) #16
  %21 = getelementptr inbounds nuw %"class.cv::UMat", ptr %9, i32 0, i32 9
  call void @_ZN2cv7MatStepC2Ev(ptr noundef nonnull align 8 dereferenceable(24) %21) #16
  %22 = getelementptr inbounds nuw %"class.cv::Size_", ptr %5, i32 0, i32 1
  %23 = load i32, ptr %22, align 4, !tbaa !91
  %24 = getelementptr inbounds nuw %"class.cv::Size_", ptr %5, i32 0, i32 0
  %25 = load i32, ptr %24, align 4, !tbaa !93
  %26 = load i32, ptr %7, align 4, !tbaa !37
  call void @_ZN2cv4UMat6createEiiiNS_14UMatUsageFlagsE(ptr noundef nonnull align 8 dereferenceable(80) %9, i32 noundef %23, i32 noundef %25, i32 noundef %26, i32 noundef 0)
  ret void
}